; Function Attrs: mustprogress nofree norecurse nosync nounwind memory(argmem: readwrite) uwtable
define internal noundef i32 @_ZN2cvL11normInf_16sEPKsPKhPiii(ptr noundef readonly captures(none) %0, ptr noundef readonly %1, ptr noundef captures(none) %2, i32 noundef %3, i32 noundef %4) #6 {
  %6 = load i32, ptr %2, align 4
  %.not.i = icmp eq ptr %1, null
  br i1 %.not.i, label %17, label %.preheader33.i

.preheader33.i:                                   ; preds = %5
  %7 = icmp sgt i32 %3, 0
  br i1 %7, label %.lr.ph40.i, label %_ZN2cv8normInf_IsiEEiPKT_PKhPT0_ii.exit

.lr.ph40.i:                                       ; preds = %.preheader33.i
  %8 = icmp sgt i32 %4, 0
  %9 = sext i32 %4 to i64
  br i1 %8, label %.lr.ph40.split.us.preheader.i, label %_ZN2cv8normInf_IsiEEiPKT_PKhPT0_ii.exit

.lr.ph40.split.us.preheader.i:                    ; preds = %.lr.ph40.i
  %wide.trip.count47.i = zext nneg i32 %3 to i64
  %wide.trip.count.i = zext nneg i32 %4 to i64
  br label %.lr.ph40.split.us.i

.lr.ph40.split.us.i:                              ; preds = %..loopexit_crit_edge.us.i, %.lr.ph40.split.us.preheader.i
  %indvars.iv44.i = phi i64 [ 0, %.lr.ph40.split.us.preheader.i ], [ %indvars.iv.next45.i, %..loopexit_crit_edge.us.i ]
  %.01838.us.i = phi ptr [ %0, %.lr.ph40.split.us.preheader.i ], [ %16, %..loopexit_crit_edge.us.i ]
  %.137.us.i = phi i32 [ %6, %.lr.ph40.split.us.preheader.i ], [ %.3.us.i, %..loopexit_crit_edge.us.i ]
  %10 = getelementptr inbounds nuw i8, ptr %1, i64 %indvars.iv44.i
  %11 = load i8, ptr %10, align 1
  %.not20.us.i = icmp eq i8 %11, 0
  br i1 %.not20.us.i, label %..loopexit_crit_edge.us.i, label %.preheader.us.i

.preheader.us.i:                                  ; preds = %.lr.ph40.split.us.i, %.preheader.us.i
  %indvars.iv.i = phi i64 [ %indvars.iv.next.i, %.preheader.us.i ], [ 0, %.lr.ph40.split.us.i ]
  %.235.us.i = phi i32 [ %.sroa.speculated.us.i, %.preheader.us.i ], [ %.137.us.i, %.lr.ph40.split.us.i ]
  %12 = getelementptr inbounds nuw i16, ptr %.01838.us.i, i64 %indvars.iv.i
  %13 = load i16, ptr %12, align 2
  %14 = tail call i16 @llvm.abs.i16(i16 %13, i1 false)
  %15 = zext i16 %14 to i32
  %.sroa.speculated.us.i = tail call i32 @llvm.smax.i32(i32 %.235.us.i, i32 %15)
  %indvars.iv.next.i = add nuw nsw i64 %indvars.iv.i, 1
  %exitcond.not.i = icmp eq i64 %indvars.iv.next.i, %wide.trip.count.i
  br i1 %exitcond.not.i, label %..loopexit_crit_edge.us.i, label %.preheader.us.i, !llvm.loop !67

..loopexit_crit_edge.us.i:                        ; preds = %.preheader.us.i, %.lr.ph40.split.us.i
  %.3.us.i = phi i32 [ %.137.us.i, %.lr.ph40.split.us.i ], [ %.sroa.speculated.us.i, %.preheader.us.i ]
  %indvars.iv.next45.i = add nuw nsw i64 %indvars.iv44.i, 1
  %16 = getelementptr inbounds nuw i16, ptr %.01838.us.i, i64 %9
  %exitcond48.not.i = icmp eq i64 %indvars.iv.next45.i, %wide.trip.count47.i
  br i1 %exitcond48.not.i, label %_ZN2cv8normInf_IsiEEiPKT_PKhPT0_ii.exit, label %.lr.ph40.split.us.i, !llvm.loop !68

17:                                               ; preds = %5
  %18 = mul nsw i32 %4, %3
  %19 = icmp sgt i32 %18, 0
  br i1 %19, label %.lr.ph.preheader.i.i, label %_ZN2cvL7normInfIsiEET0_PKT_i.exit.i

.lr.ph.preheader.i.i:                             ; preds = %17
  %wide.trip.count.i.i = zext nneg i32 %18 to i64
  br label %.lr.ph.i.i

.lr.ph.i.i:                                       ; preds = %.lr.ph.i.i, %.lr.ph.preheader.i.i
  %indvars.iv.i.i = phi i64 [ 0, %.lr.ph.preheader.i.i ], [ %indvars.iv.next.i.i, %.lr.ph.i.i ]
  %.089.i.i = phi i32 [ 0, %.lr.ph.preheader.i.i ], [ %.sroa.speculated.i.i, %.lr.ph.i.i ]
  %20 = getelementptr inbounds nuw i16, ptr %0, i64 %indvars.iv.i.i
  %21 = load i16, ptr %20, align 2
  %22 = tail call i16 @llvm.abs.i16(i16 %21, i1 false)
  %23 = zext i16 %22 to i32
  %.sroa.speculated.i.i = tail call i32 @llvm.umax.i32(i32 %.089.i.i, i32 %23)
  %indvars.iv.next.i.i = add nuw nsw i64 %indvars.iv.i.i, 1
  %exitcond.not.i.i = icmp eq i64 %indvars.iv.next.i.i, %wide.trip.count.i.i
  br i1 %exitcond.not.i.i, label %_ZN2cvL7normInfIsiEET0_PKT_i.exit.i, label %.lr.ph.i.i, !llvm.loop !69

_ZN2cvL7normInfIsiEET0_PKT_i.exit.i:              ; preds = %.lr.ph.i.i, %17
  %.08.lcssa.i.i = phi i32 [ 0, %17 ], [ %.sroa.speculated.i.i, %.lr.ph.i.i ]
  %.sroa.speculated24.i = tail call i32 @llvm.smax.i32(i32 %6, i32 %.08.lcssa.i.i)
  br label %_ZN2cv8normInf_IsiEEiPKT_PKhPT0_ii.exit

_ZN2cv8normInf_IsiEEiPKT_PKhPT0_ii.exit:          ; preds = %..loopexit_crit_edge.us.i, %.preheader33.i, %.lr.ph40.i, %_ZN2cvL7normInfIsiEET0_PKT_i.exit.i
  %.032.i = phi i32 [ %.sroa.speculated24.i, %_ZN2cvL7normInfIsiEET0_PKT_i.exit.i ], [ %6, %.preheader33.i ], [ %6, %.lr.ph40.i ], [ %.3.us.i, %..loopexit_crit_edge.us.i ]
  store i32 %.032.i, ptr %2, align 4
  ret i32 0
}